; Function Attrs: nounwind uwtable
define hidden i32 @_mi_prim_commit(ptr noundef %0, i64 noundef %1, ptr noundef writeonly captures(none) initializes((0, 1)) %2) local_unnamed_addr #0 {
  store i8 0, ptr %2, align 1, !tbaa !17
  %4 = tail call i32 @mprotect(ptr noundef %0, i64 noundef %1, i32 noundef 3) #10
  %.not = icmp eq i32 %4, 0
  br i1 %.not, label %8, label %5

5:                                                ; preds = %3
  %6 = tail call ptr @__errno_location() #12
  %7 = load i32, ptr %6, align 4, !tbaa !15
  br label %8

8:                                                ; preds = %5, %3
  %.0 = phi i32 [ %7, %5 ], [ 0, %3 ]
  ret i32 %.0
}